LIBRARY	"GxxGmGoVideo"

EXPORTS
	??0GxxGmGoVideo@@QAE@XZ
	??1GxxGmGoVideo@@QAE@XZ
	?Initialize@GxxGmGoVideo@@QAEHH@Z
	?Destroy@GxxGmGoVideo@@QAEXXZ
	?Login@GxxGmGoVideo@@QAEHPBDG00H00@Z
	?Logout@GxxGmGoVideo@@QAEHXZ
	?GetAllDevices@GxxGmGoVideo@@QAEHXZ
	?GetDeviceStatus@GxxGmGoVideo@@QAEHPBDAAU_GOVIDEO_DEVICE_STATUS_@@@Z
	?GetAllDeviceStatus@GxxGmGoVideo@@QAEHXZ
	?SubscriptionMsg@GxxGmGoVideo@@QAEHHPBDH@Z
	;?GetRealStream@GxxGmGoVideo@@QAEHIAAV?$basic_string@DU?$char_traits@D@std@@V?$allocator@D@2@@std@@@Z
	?GetRealStream@GxxGmGoVideo@@QAEHIAAV?$basic_string@DU?$char_traits@D@std@@V?$allocator@D@2@@std@@W4enStreamAgentType@@@Z
	?GetRealStreamByGBCode@GxxGmGoVideo@@QAEHPBDAAV?$basic_string@DU?$char_traits@D@std@@V?$allocator@D@2@@std@@@Z
	;?GetAllDevices@GxxGmGoVideo@@QAEHXZ
	;?GetDeviceStatus@GxxGmGoVideo@@QAEHPBD@Z
	;?GetRealStream@GxxGmGoVideo@@QAEHPBD@Z
	
	??0GxxGmHttpServer@@QAE@XZ
	;??_GGxxGmHttpServer@@UAEPAXI@Z
	;??_EGxxGmHttpServer@@UAEPAXI@Z
	??1GxxGmHttpServer@@UAE@XZ
	?main@GxxGmHttpServer@@MAEHABV?$vector@V?$basic_string@DU?$char_traits@D@std@@V?$allocator@D@2@@std@@V?$allocator@V?$basic_string@DU?$char_traits@D@std@@V?$allocator@D@2@@std@@@2@@std@@@Z
	?Start@GxxGmHttpServer@@QAEXXZ
	?Stop@GxxGmHttpServer@@QAEXXZ